target datalayout = "e-m:e-p270:32:32-p271:32:32-p272:64:64-i64:64-i128:128-f80:128-n8:16:32:64-S128"
target triple = "x86_64-pc-linux-gnu"

%struct.HWContextType = type { i32, ptr, ptr, i64, i64, i64, ptr, ptr, ptr, ptr, ptr, ptr, ptr, ptr, ptr, ptr, ptr, ptr, ptr, ptr, ptr }
%struct.AVBufferRef = type { ptr, ptr, i64 }
%struct.FFHWFramesContext = type { %struct.AVHWFramesContext, ptr, ptr, ptr, i32 }
%struct.AVHWFramesContext = type { ptr, ptr, ptr, ptr, ptr, ptr, ptr, i32, i32, i32, i32, i32 }
%struct.AVFrame = type { [8 x ptr], [8 x i32], ptr, i32, i32, i32, i32, i32, %struct.AVRational, i64, i64, %struct.AVRational, i32, ptr, i32, i32, [8 x ptr], ptr, i32, ptr, i32, i32, i32, i32, i32, i32, i32, i64, ptr, i32, ptr, ptr, i64, i64, i64, i64, ptr, %struct.AVChannelLayout, i64 }
%struct.AVRational = type { i32, i32 }
%struct.AVChannelLayout = type { i32, i32, %union.anon, ptr }
%union.anon = type { i64 }
%struct.HWMapDescriptor = type { ptr, ptr, ptr, ptr }

@.str.4 = private unnamed_addr constant [46 x i8] c"Invalid mapping found when attempting unmap.\0A\00", align 1
@.str.5 = private unnamed_addr constant [30 x i8] c"Assertion %s failed at %s:%d\0A\00", align 1
@.str.6 = private unnamed_addr constant [71 x i8] c"orig_dst_frames == ((void*)0) || orig_dst_frames == dst->hw_frames_ctx\00", align 1
@.str.7 = private unnamed_addr constant [22 x i8] c"libavutil/hwcontext.c\00", align 1

; Function Attrs: nounwind uwtable
define i32 @av_hwframe_map(ptr noundef %0, ptr noundef %1, i32 noundef %2) #0 {
  %4 = alloca i32, align 4
  %5 = alloca ptr, align 8
  %6 = alloca ptr, align 8
  %7 = alloca i32, align 4
  %8 = alloca ptr, align 8
  %9 = alloca i32, align 4
  %10 = alloca ptr, align 8
  %11 = alloca i32, align 4
  %12 = alloca ptr, align 8
  %13 = alloca ptr, align 8
  %14 = alloca i32, align 4
  %15 = alloca ptr, align 8
  %16 = alloca ptr, align 8
  store ptr %0, ptr %5, align 8, !tbaa !71
  store ptr %1, ptr %6, align 8, !tbaa !71
  store i32 %2, ptr %7, align 4, !tbaa !9
  call void @llvm.lifetime.start.p0(i64 8, ptr %8) #5
  %17 = load ptr, ptr %5, align 8, !tbaa !71
  %18 = getelementptr inbounds nuw %struct.AVFrame, ptr %17, i32 0, i32 30
  %19 = load ptr, ptr %18, align 8, !tbaa !77
  store ptr %19, ptr %8, align 8, !tbaa !28
  call void @llvm.lifetime.start.p0(i64 4, ptr %9) #5
  %20 = load ptr, ptr %5, align 8, !tbaa !71
  %21 = getelementptr inbounds nuw %struct.AVFrame, ptr %20, i32 0, i32 6
  %22 = load i32, ptr %21, align 4, !tbaa !87
  store i32 %22, ptr %9, align 4, !tbaa !9
  call void @llvm.lifetime.start.p0(i64 8, ptr %10) #5
  call void @llvm.lifetime.start.p0(i64 4, ptr %11) #5
  %23 = load ptr, ptr %6, align 8, !tbaa !71
  %24 = getelementptr inbounds nuw %struct.AVFrame, ptr %23, i32 0, i32 30
  %25 = load ptr, ptr %24, align 8, !tbaa !77
  %26 = icmp ne ptr %25, null
  br i1 %26, label %27, label %101

27:                                               ; preds = %3
  %28 = load ptr, ptr %5, align 8, !tbaa !71
  %29 = getelementptr inbounds nuw %struct.AVFrame, ptr %28, i32 0, i32 30
  %30 = load ptr, ptr %29, align 8, !tbaa !77
  %31 = icmp ne ptr %30, null
  br i1 %31, label %32, label %101

32:                                               ; preds = %27
  call void @llvm.lifetime.start.p0(i64 8, ptr %12) #5
  %33 = load ptr, ptr %6, align 8, !tbaa !71
  %34 = getelementptr inbounds nuw %struct.AVFrame, ptr %33, i32 0, i32 30
  %35 = load ptr, ptr %34, align 8, !tbaa !77
  %36 = getelementptr inbounds nuw %struct.AVBufferRef, ptr %35, i32 0, i32 1
  %37 = load ptr, ptr %36, align 8, !tbaa !37
  store ptr %37, ptr %12, align 8, !tbaa !41
  call void @llvm.lifetime.start.p0(i64 8, ptr %13) #5
  %38 = load ptr, ptr %5, align 8, !tbaa !71
  %39 = getelementptr inbounds nuw %struct.AVFrame, ptr %38, i32 0, i32 30
  %40 = load ptr, ptr %39, align 8, !tbaa !77
  %41 = getelementptr inbounds nuw %struct.AVBufferRef, ptr %40, i32 0, i32 1
  %42 = load ptr, ptr %41, align 8, !tbaa !37
  store ptr %42, ptr %13, align 8, !tbaa !41
  %43 = load ptr, ptr %12, align 8, !tbaa !41
  %44 = load ptr, ptr %13, align 8, !tbaa !41
  %45 = icmp eq ptr %43, %44
  br i1 %45, label %46, label %64

46:                                               ; preds = %32
  %47 = load ptr, ptr %6, align 8, !tbaa !71
  %48 = getelementptr inbounds nuw %struct.AVFrame, ptr %47, i32 0, i32 6
  %49 = load i32, ptr %48, align 4, !tbaa !87
  %50 = load ptr, ptr %13, align 8, !tbaa !41
  %51 = getelementptr inbounds nuw %struct.FFHWFramesContext, ptr %50, i32 0, i32 0
  %52 = getelementptr inbounds nuw %struct.AVHWFramesContext, ptr %51, i32 0, i32 9
  %53 = load i32, ptr %52, align 8, !tbaa !93
  %54 = icmp eq i32 %49, %53
  br i1 %54, label %55, label %64

55:                                               ; preds = %46
  %56 = load ptr, ptr %5, align 8, !tbaa !71
  %57 = getelementptr inbounds nuw %struct.AVFrame, ptr %56, i32 0, i32 6
  %58 = load i32, ptr %57, align 4, !tbaa !87
  %59 = load ptr, ptr %13, align 8, !tbaa !41
  %60 = getelementptr inbounds nuw %struct.FFHWFramesContext, ptr %59, i32 0, i32 0
  %61 = getelementptr inbounds nuw %struct.AVHWFramesContext, ptr %60, i32 0, i32 8
  %62 = load i32, ptr %61, align 4, !tbaa !94
  %63 = icmp eq i32 %58, %62
  br i1 %63, label %77, label %64

64:                                               ; preds = %55, %46, %32
  %65 = load ptr, ptr %12, align 8, !tbaa !41
  %66 = getelementptr inbounds nuw %struct.FFHWFramesContext, ptr %65, i32 0, i32 3
  %67 = load ptr, ptr %66, align 8, !tbaa !59
  %68 = icmp ne ptr %67, null
  br i1 %68, label %69, label %97

69:                                               ; preds = %64
  %70 = load ptr, ptr %12, align 8, !tbaa !41
  %71 = getelementptr inbounds nuw %struct.FFHWFramesContext, ptr %70, i32 0, i32 3
  %72 = load ptr, ptr %71, align 8, !tbaa !59
  %73 = getelementptr inbounds nuw %struct.AVBufferRef, ptr %72, i32 0, i32 1
  %74 = load ptr, ptr %73, align 8, !tbaa !37
  %75 = load ptr, ptr %13, align 8, !tbaa !41
  %76 = icmp eq ptr %74, %75
  br i1 %76, label %77, label %97

77:                                               ; preds = %69, %55
  %78 = load ptr, ptr %6, align 8, !tbaa !71
  %79 = getelementptr inbounds nuw %struct.AVFrame, ptr %78, i32 0, i32 16
  %80 = getelementptr inbounds [8 x ptr], ptr %79, i64 0, i64 0
  %81 = load ptr, ptr %80, align 8, !tbaa !28
  %82 = icmp ne ptr %81, null
  br i1 %82, label %85, label %83

83:                                               ; preds = %77
  %84 = load ptr, ptr %12, align 8, !tbaa !41
  call void (ptr, i32, ptr, ...) @av_log(ptr noundef %84, i32 noundef 16, ptr noundef @.str.4)
  store i32 -22, ptr %4, align 4
  store i32 1, ptr %14, align 4
  br label %98

85:                                               ; preds = %77
  %86 = load ptr, ptr %6, align 8, !tbaa !71
  %87 = getelementptr inbounds nuw %struct.AVFrame, ptr %86, i32 0, i32 16
  %88 = getelementptr inbounds [8 x ptr], ptr %87, i64 0, i64 0
  %89 = load ptr, ptr %88, align 8, !tbaa !28
  %90 = getelementptr inbounds nuw %struct.AVBufferRef, ptr %89, i32 0, i32 1
  %91 = load ptr, ptr %90, align 8, !tbaa !37
  store ptr %91, ptr %10, align 8, !tbaa !95
  %92 = load ptr, ptr %5, align 8, !tbaa !71
  %93 = load ptr, ptr %10, align 8, !tbaa !95
  %94 = getelementptr inbounds nuw %struct.HWMapDescriptor, ptr %93, i32 0, i32 0
  %95 = load ptr, ptr %94, align 8, !tbaa !97
  %96 = call i32 @av_frame_replace(ptr noundef %92, ptr noundef %95)
  store i32 %96, ptr %4, align 4
  store i32 1, ptr %14, align 4
  br label %98

97:                                               ; preds = %69, %64
  store i32 0, ptr %14, align 4
  br label %98

98:                                               ; preds = %97, %85, %83
  call void @llvm.lifetime.end.p0(i64 8, ptr %13) #5
  call void @llvm.lifetime.end.p0(i64 8, ptr %12) #5
  %99 = load i32, ptr %14, align 4
  switch i32 %99, label %230 [
    i32 0, label %100
  ]

100:                                              ; preds = %98
  br label %101

101:                                              ; preds = %100, %27, %3
  %102 = load ptr, ptr %6, align 8, !tbaa !71
  %103 = getelementptr inbounds nuw %struct.AVFrame, ptr %102, i32 0, i32 30
  %104 = load ptr, ptr %103, align 8, !tbaa !77
  %105 = icmp ne ptr %104, null
  br i1 %105, label %106, label %153

106:                                              ; preds = %101
  call void @llvm.lifetime.start.p0(i64 8, ptr %15) #5
  %107 = load ptr, ptr %6, align 8, !tbaa !71
  %108 = getelementptr inbounds nuw %struct.AVFrame, ptr %107, i32 0, i32 30
  %109 = load ptr, ptr %108, align 8, !tbaa !77
  %110 = getelementptr inbounds nuw %struct.AVBufferRef, ptr %109, i32 0, i32 1
  %111 = load ptr, ptr %110, align 8, !tbaa !37
  store ptr %111, ptr %15, align 8, !tbaa !41
  %112 = load ptr, ptr %15, align 8, !tbaa !41
  %113 = getelementptr inbounds nuw %struct.FFHWFramesContext, ptr %112, i32 0, i32 0
  %114 = getelementptr inbounds nuw %struct.AVHWFramesContext, ptr %113, i32 0, i32 8
  %115 = load i32, ptr %114, align 4, !tbaa !94
  %116 = load ptr, ptr %6, align 8, !tbaa !71
  %117 = getelementptr inbounds nuw %struct.AVFrame, ptr %116, i32 0, i32 6
  %118 = load i32, ptr %117, align 4, !tbaa !87
  %119 = icmp eq i32 %115, %118
  br i1 %119, label %120, label %149

120:                                              ; preds = %106
  %121 = load ptr, ptr %15, align 8, !tbaa !41
  %122 = getelementptr inbounds nuw %struct.FFHWFramesContext, ptr %121, i32 0, i32 1
  %123 = load ptr, ptr %122, align 8, !tbaa !54
  %124 = getelementptr inbounds nuw %struct.HWContextType, ptr %123, i32 0, i32 18
  %125 = load ptr, ptr %124, align 8, !tbaa !99
  %126 = icmp ne ptr %125, null
  br i1 %126, label %127, label %149

127:                                              ; preds = %120
  %128 = load ptr, ptr %15, align 8, !tbaa !41
  %129 = getelementptr inbounds nuw %struct.FFHWFramesContext, ptr %128, i32 0, i32 1
  %130 = load ptr, ptr %129, align 8, !tbaa !54
  %131 = getelementptr inbounds nuw %struct.HWContextType, ptr %130, i32 0, i32 18
  %132 = load ptr, ptr %131, align 8, !tbaa !99
  %133 = load ptr, ptr %15, align 8, !tbaa !41
  %134 = getelementptr inbounds nuw %struct.FFHWFramesContext, ptr %133, i32 0, i32 0
  %135 = load ptr, ptr %5, align 8, !tbaa !71
  %136 = load ptr, ptr %6, align 8, !tbaa !71
  %137 = load i32, ptr %7, align 4, !tbaa !9
  %138 = call i32 %132(ptr noundef %134, ptr noundef %135, ptr noundef %136, i32 noundef %137)
  store i32 %138, ptr %11, align 4, !tbaa !9
  %139 = load i32, ptr %11, align 4, !tbaa !9
  %140 = icmp sge i32 %139, 0
  br i1 %140, label %141, label %143

141:                                              ; preds = %127
  %142 = load i32, ptr %11, align 4, !tbaa !9
  store i32 %142, ptr %4, align 4
  store i32 1, ptr %14, align 4
  br label %150

143:                                              ; preds = %127
  %144 = load i32, ptr %11, align 4, !tbaa !9
  %145 = icmp ne i32 %144, -38
  br i1 %145, label %146, label %147

146:                                              ; preds = %143
  store i32 2, ptr %14, align 4
  br label %150

147:                                              ; preds = %143
  br label %148

148:                                              ; preds = %147
  br label %149

149:                                              ; preds = %148, %120, %106
  store i32 0, ptr %14, align 4
  br label %150

150:                                              ; preds = %146, %149, %141
  call void @llvm.lifetime.end.p0(i64 8, ptr %15) #5
  %151 = load i32, ptr %14, align 4
  switch i32 %151, label %230 [
    i32 0, label %152
    i32 2, label %206
  ]

152:                                              ; preds = %150
  br label %153

153:                                              ; preds = %152, %101
  %154 = load ptr, ptr %5, align 8, !tbaa !71
  %155 = getelementptr inbounds nuw %struct.AVFrame, ptr %154, i32 0, i32 30
  %156 = load ptr, ptr %155, align 8, !tbaa !77
  %157 = icmp ne ptr %156, null
  br i1 %157, label %158, label %205

158:                                              ; preds = %153
  call void @llvm.lifetime.start.p0(i64 8, ptr %16) #5
  %159 = load ptr, ptr %5, align 8, !tbaa !71
  %160 = getelementptr inbounds nuw %struct.AVFrame, ptr %159, i32 0, i32 30
  %161 = load ptr, ptr %160, align 8, !tbaa !77
  %162 = getelementptr inbounds nuw %struct.AVBufferRef, ptr %161, i32 0, i32 1
  %163 = load ptr, ptr %162, align 8, !tbaa !37
  store ptr %163, ptr %16, align 8, !tbaa !41
  %164 = load ptr, ptr %16, align 8, !tbaa !41
  %165 = getelementptr inbounds nuw %struct.FFHWFramesContext, ptr %164, i32 0, i32 0
  %166 = getelementptr inbounds nuw %struct.AVHWFramesContext, ptr %165, i32 0, i32 8
  %167 = load i32, ptr %166, align 4, !tbaa !94
  %168 = load ptr, ptr %5, align 8, !tbaa !71
  %169 = getelementptr inbounds nuw %struct.AVFrame, ptr %168, i32 0, i32 6
  %170 = load i32, ptr %169, align 4, !tbaa !87
  %171 = icmp eq i32 %167, %170
  br i1 %171, label %172, label %201

172:                                              ; preds = %158
  %173 = load ptr, ptr %16, align 8, !tbaa !41
  %174 = getelementptr inbounds nuw %struct.FFHWFramesContext, ptr %173, i32 0, i32 1
  %175 = load ptr, ptr %174, align 8, !tbaa !54
  %176 = getelementptr inbounds nuw %struct.HWContextType, ptr %175, i32 0, i32 17
  %177 = load ptr, ptr %176, align 8, !tbaa !100
  %178 = icmp ne ptr %177, null
  br i1 %178, label %179, label %201

179:                                              ; preds = %172
  %180 = load ptr, ptr %16, align 8, !tbaa !41
  %181 = getelementptr inbounds nuw %struct.FFHWFramesContext, ptr %180, i32 0, i32 1
  %182 = load ptr, ptr %181, align 8, !tbaa !54
  %183 = getelementptr inbounds nuw %struct.HWContextType, ptr %182, i32 0, i32 17
  %184 = load ptr, ptr %183, align 8, !tbaa !100
  %185 = load ptr, ptr %16, align 8, !tbaa !41
  %186 = getelementptr inbounds nuw %struct.FFHWFramesContext, ptr %185, i32 0, i32 0
  %187 = load ptr, ptr %5, align 8, !tbaa !71
  %188 = load ptr, ptr %6, align 8, !tbaa !71
  %189 = load i32, ptr %7, align 4, !tbaa !9
  %190 = call i32 %184(ptr noundef %186, ptr noundef %187, ptr noundef %188, i32 noundef %189)
  store i32 %190, ptr %11, align 4, !tbaa !9
  %191 = load i32, ptr %11, align 4, !tbaa !9
  %192 = icmp sge i32 %191, 0
  br i1 %192, label %193, label %195

193:                                              ; preds = %179
  %194 = load i32, ptr %11, align 4, !tbaa !9
  store i32 %194, ptr %4, align 4
  store i32 1, ptr %14, align 4
  br label %202

195:                                              ; preds = %179
  %196 = load i32, ptr %11, align 4, !tbaa !9
  %197 = icmp ne i32 %196, -38
  br i1 %197, label %198, label %199

198:                                              ; preds = %195
  store i32 2, ptr %14, align 4
  br label %202

199:                                              ; preds = %195
  br label %200

200:                                              ; preds = %199
  br label %201

201:                                              ; preds = %200, %172, %158
  store i32 0, ptr %14, align 4
  br label %202

202:                                              ; preds = %198, %201, %193
  call void @llvm.lifetime.end.p0(i64 8, ptr %16) #5
  %203 = load i32, ptr %14, align 4
  switch i32 %203, label %230 [
    i32 0, label %204
    i32 2, label %206
  ]

204:                                              ; preds = %202
  br label %205

205:                                              ; preds = %204, %153
  store i32 -38, ptr %4, align 4
  store i32 1, ptr %14, align 4
  br label %230

206:                                              ; preds = %202, %150
  br label %207

207:                                              ; preds = %206
  %208 = load ptr, ptr %8, align 8, !tbaa !28
  %209 = icmp eq ptr %208, null
  br i1 %209, label %217, label %210

210:                                              ; preds = %207
  %211 = load ptr, ptr %8, align 8, !tbaa !28
  %212 = load ptr, ptr %5, align 8, !tbaa !71
  %213 = getelementptr inbounds nuw %struct.AVFrame, ptr %212, i32 0, i32 30
  %214 = load ptr, ptr %213, align 8, !tbaa !77
  %215 = icmp eq ptr %211, %214
  br i1 %215, label %217, label %216

216:                                              ; preds = %210
  call void (ptr, i32, ptr, ...) @av_log(ptr noundef null, i32 noundef 0, ptr noundef @.str.5, ptr noundef @.str.6, ptr noundef @.str.7, i32 noundef 854)
  call void @abort() #7
  unreachable

217:                                              ; preds = %210, %207
  br label %218

218:                                              ; preds = %217
  br label %219

219:                                              ; preds = %218
  %220 = load ptr, ptr %5, align 8, !tbaa !71
  %221 = getelementptr inbounds nuw %struct.AVFrame, ptr %220, i32 0, i32 30
  store ptr null, ptr %221, align 8, !tbaa !77
  %222 = load ptr, ptr %5, align 8, !tbaa !71
  call void @av_frame_unref(ptr noundef %222)
  %223 = load ptr, ptr %8, align 8, !tbaa !28
  %224 = load ptr, ptr %5, align 8, !tbaa !71
  %225 = getelementptr inbounds nuw %struct.AVFrame, ptr %224, i32 0, i32 30
  store ptr %223, ptr %225, align 8, !tbaa !77
  %226 = load i32, ptr %9, align 4, !tbaa !9
  %227 = load ptr, ptr %5, align 8, !tbaa !71
  %228 = getelementptr inbounds nuw %struct.AVFrame, ptr %227, i32 0, i32 6
  store i32 %226, ptr %228, align 4, !tbaa !87
  %229 = load i32, ptr %11, align 4, !tbaa !9
  store i32 %229, ptr %4, align 4
  store i32 1, ptr %14, align 4
  br label %230

230:                                              ; preds = %219, %205, %202, %150, %98
  call void @llvm.lifetime.end.p0(i64 4, ptr %11) #5
  call void @llvm.lifetime.end.p0(i64 8, ptr %10) #5
  call void @llvm.lifetime.end.p0(i64 4, ptr %9) #5
  call void @llvm.lifetime.end.p0(i64 8, ptr %8) #5
  %231 = load i32, ptr %4, align 4
  ret i32 %231
}