; Function Attrs: nounwind uwtable
define i32 @av_hwframe_map(ptr noundef %0, ptr noundef %1, i32 noundef %2) local_unnamed_addr #5 {
  %4 = getelementptr inbounds nuw i8, ptr %0, i64 328
  %5 = load ptr, ptr %4, align 8, !tbaa !71
  %6 = getelementptr inbounds nuw i8, ptr %0, i64 116
  %7 = load i32, ptr %6, align 4, !tbaa !79
  %8 = getelementptr inbounds nuw i8, ptr %1, i64 328
  %9 = load ptr, ptr %8, align 8, !tbaa !71
  %.not = icmp eq ptr %9, null
  %.not82 = icmp eq ptr %5, null
  %or.cond = select i1 %.not, i1 true, i1 %.not82
  br i1 %or.cond, label %.thread, label %10

10:                                               ; preds = %3
  %11 = getelementptr inbounds nuw i8, ptr %9, i64 8
  %12 = load ptr, ptr %11, align 8, !tbaa !32
  %13 = getelementptr inbounds nuw i8, ptr %5, i64 8
  %14 = load ptr, ptr %13, align 8, !tbaa !32
  %15 = icmp eq ptr %12, %14
  br i1 %15, label %16, label %26

16:                                               ; preds = %10
  %17 = getelementptr inbounds nuw i8, ptr %1, i64 116
  %18 = load i32, ptr %17, align 4, !tbaa !79
  %19 = getelementptr inbounds nuw i8, ptr %14, i64 64
  %20 = load i32, ptr %19, align 8, !tbaa !88
  %21 = icmp eq i32 %18, %20
  br i1 %21, label %22, label %26

22:                                               ; preds = %16
  %23 = getelementptr inbounds nuw i8, ptr %14, i64 60
  %24 = load i32, ptr %23, align 4, !tbaa !89
  %25 = icmp eq i32 %7, %24
  br i1 %25, label %33, label %26

26:                                               ; preds = %22, %16, %10
  %27 = getelementptr inbounds nuw i8, ptr %12, i64 96
  %28 = load ptr, ptr %27, align 8, !tbaa !53
  %.not83 = icmp eq ptr %28, null
  br i1 %.not83, label %.thread.thread, label %29

29:                                               ; preds = %26
  %30 = getelementptr inbounds nuw i8, ptr %28, i64 8
  %31 = load ptr, ptr %30, align 8, !tbaa !32
  %32 = icmp eq ptr %31, %14
  br i1 %32, label %33, label %.thread.thread

33:                                               ; preds = %29, %22
  %34 = getelementptr inbounds nuw i8, ptr %1, i64 184
  %35 = load ptr, ptr %34, align 8, !tbaa !36
  %.not84 = icmp eq ptr %35, null
  br i1 %.not84, label %36, label %37

36:                                               ; preds = %33
  tail call void (ptr, i32, ptr, ...) @av_log(ptr noundef %12, i32 noundef 16, ptr noundef nonnull @.str.4) #11
  br label %.thread94

37:                                               ; preds = %33
  %38 = getelementptr inbounds nuw i8, ptr %35, i64 8
  %39 = load ptr, ptr %38, align 8, !tbaa !32
  %40 = load ptr, ptr %39, align 8, !tbaa !90
  %41 = tail call i32 @av_frame_replace(ptr noundef nonnull %0, ptr noundef %40) #11
  br label %.thread94

.thread:                                          ; preds = %3
  br i1 %.not, label %.thread98, label %.thread.thread

.thread.thread:                                   ; preds = %29, %26, %.thread
  %42 = getelementptr inbounds nuw i8, ptr %9, i64 8
  %43 = load ptr, ptr %42, align 8, !tbaa !32
  %44 = getelementptr inbounds nuw i8, ptr %43, i64 60
  %45 = load i32, ptr %44, align 4, !tbaa !89
  %46 = getelementptr inbounds nuw i8, ptr %1, i64 116
  %47 = load i32, ptr %46, align 4, !tbaa !79
  %48 = icmp eq i32 %45, %47
  br i1 %48, label %49, label %.thread98

49:                                               ; preds = %.thread.thread
  %50 = getelementptr inbounds nuw i8, ptr %43, i64 80
  %51 = load ptr, ptr %50, align 8, !tbaa !48
  %52 = getelementptr inbounds nuw i8, ptr %51, i64 144
  %53 = load ptr, ptr %52, align 8, !tbaa !92
  %.not86 = icmp eq ptr %53, null
  br i1 %.not86, label %.thread98, label %54

54:                                               ; preds = %49
  %55 = tail call i32 %53(ptr noundef nonnull %43, ptr noundef nonnull %0, ptr noundef nonnull %1, i32 noundef %2) #11
  %56 = icmp sgt i32 %55, -1
  br i1 %56, label %.thread94, label %57

57:                                               ; preds = %54
  %.not87 = icmp eq i32 %55, -38
  br i1 %.not87, label %..thread98_crit_edge, label %75

..thread98_crit_edge:                             ; preds = %57
  %.pre = load ptr, ptr %4, align 8, !tbaa !71
  br label %.thread98

.thread98:                                        ; preds = %..thread98_crit_edge, %49, %.thread.thread, %.thread
  %58 = phi ptr [ %.pre, %..thread98_crit_edge ], [ %5, %49 ], [ %5, %.thread.thread ], [ %5, %.thread ]
  %.not88 = icmp eq ptr %58, null
  br i1 %.not88, label %.thread94, label %59

59:                                               ; preds = %.thread98
  %60 = getelementptr inbounds nuw i8, ptr %58, i64 8
  %61 = load ptr, ptr %60, align 8, !tbaa !32
  %62 = getelementptr inbounds nuw i8, ptr %61, i64 60
  %63 = load i32, ptr %62, align 4, !tbaa !89
  %64 = load i32, ptr %6, align 4, !tbaa !79
  %65 = icmp eq i32 %63, %64
  br i1 %65, label %66, label %.thread94

66:                                               ; preds = %59
  %67 = getelementptr inbounds nuw i8, ptr %61, i64 80
  %68 = load ptr, ptr %67, align 8, !tbaa !48
  %69 = getelementptr inbounds nuw i8, ptr %68, i64 136
  %70 = load ptr, ptr %69, align 8, !tbaa !93
  %.not89 = icmp eq ptr %70, null
  br i1 %.not89, label %.thread94, label %71

71:                                               ; preds = %66
  %72 = tail call i32 %70(ptr noundef nonnull %61, ptr noundef nonnull %0, ptr noundef nonnull %1, i32 noundef %2) #11
  %73 = icmp sgt i32 %72, -1
  br i1 %73, label %.thread94, label %74

74:                                               ; preds = %71
  %.not90 = icmp eq i32 %72, -38
  br i1 %.not90, label %.thread94, label %75

75:                                               ; preds = %74, %57
  %.564 = phi i32 [ %55, %57 ], [ %72, %74 ]
  br i1 %.not82, label %80, label %76

76:                                               ; preds = %75
  %77 = load ptr, ptr %4, align 8, !tbaa !71
  %78 = icmp eq ptr %5, %77
  br i1 %78, label %80, label %79

79:                                               ; preds = %76
  tail call void (ptr, i32, ptr, ...) @av_log(ptr noundef null, i32 noundef 0, ptr noundef nonnull @.str.5, ptr noundef nonnull @.str.6, ptr noundef nonnull @.str.7, i32 noundef 854) #11
  tail call void @abort() #12
  unreachable

80:                                               ; preds = %76, %75
  store ptr null, ptr %4, align 8, !tbaa !71
  tail call void @av_frame_unref(ptr noundef nonnull %0) #11
  store ptr %5, ptr %4, align 8, !tbaa !71
  store i32 %7, ptr %6, align 4, !tbaa !79
  br label %.thread94

.thread94:                                        ; preds = %74, %59, %66, %71, %54, %.thread98, %36, %37, %80
  %.2 = phi i32 [ %.564, %80 ], [ %41, %37 ], [ -22, %36 ], [ -38, %.thread98 ], [ %55, %54 ], [ %72, %71 ], [ -38, %66 ], [ -38, %59 ], [ -38, %74 ]
  ret i32 %.2
}